ARM GAS  C:\Users\asentaja\AppData\Local\Temp\cchb7DUf.s 			page 1


   1              		.syntax unified
   2              		.cpu cortex-m3
   3              		.fpu softvfp
   4              		.eabi_attribute 20, 1
   5              		.eabi_attribute 21, 1
   6              		.eabi_attribute 23, 3
   7              		.eabi_attribute 24, 1
   8              		.eabi_attribute 25, 1
   9              		.eabi_attribute 26, 1
  10              		.eabi_attribute 30, 1
  11              		.eabi_attribute 34, 1
  12              		.eabi_attribute 18, 4
  13              		.thumb
  14              		.file	"main.c"
  15              		.text
  16              	.Ltext0:
  17              		.cfi_sections	.debug_frame
  18              		.global	__aeabi_f2d
  19              		.global	__aeabi_ddiv
  20              		.global	__aeabi_d2f
  21              		.section	.text.main,"ax",%progbits
  22              		.align	2
  23              		.global	main
  24              		.thumb
  25              		.thumb_func
  26              		.type	main, %function
  27              	main:
  28              	.LFB63:
  29              		.file 1 "main.c"
   1:main.c        **** /**
   2:main.c        **** * @mainpage ZumoBot Project
   3:main.c        **** * @brief    You can make your own ZumoBot with various sensors.
   4:main.c        **** * @details  <br><br>
   5:main.c        ****     <p>
   6:main.c        ****     <B>General</B><br>
   7:main.c        ****     You will use Pololu Zumo Shields for your robot project with CY8CKIT-059(PSoC 5LP) from Cypress
   8:main.c        ****     library has basic methods of various sensors and communications so that you can make what you w
   9:main.c        ****     <br><br>
  10:main.c        ****     </p>
  11:main.c        ****     
  12:main.c        ****     <p>
  13:main.c        ****     <B>Sensors</B><br>
  14:main.c        ****     &nbsp;Included: <br>
  15:main.c        ****         &nbsp;&nbsp;&nbsp;&nbsp;LSM303D: Accelerometer & Magnetometer<br>
  16:main.c        ****         &nbsp;&nbsp;&nbsp;&nbsp;L3GD20H: Gyroscope<br>
  17:main.c        ****         &nbsp;&nbsp;&nbsp;&nbsp;Reflectance sensor<br>
  18:main.c        ****         &nbsp;&nbsp;&nbsp;&nbsp;Motors
  19:main.c        ****     &nbsp;Wii nunchuck<br>
  20:main.c        ****     &nbsp;TSOP-2236: IR Receiver<br>
  21:main.c        ****     &nbsp;HC-SR04: Ultrasonic sensor<br>
  22:main.c        ****     &nbsp;APDS-9301: Ambient light sensor<br>
  23:main.c        ****     &nbsp;IR LED <br><br><br>
  24:main.c        ****     </p>
  25:main.c        ****     
  26:main.c        ****     <p>
  27:main.c        ****     <B>Communication</B><br>
  28:main.c        ****     I2C, UART, Serial<br>
ARM GAS  C:\Users\asentaja\AppData\Local\Temp\cchb7DUf.s 			page 2


  29:main.c        ****     </p>
  30:main.c        **** */
  31:main.c        **** 
  32:main.c        **** #include <project.h>
  33:main.c        **** #include <stdio.h>
  34:main.c        **** #include "Motor.h"
  35:main.c        **** #include "Ultra.h"
  36:main.c        **** #include "Nunchuk.h"
  37:main.c        **** #include "Reflectance.h"
  38:main.c        **** #include "I2C_made.h"
  39:main.c        **** #include "Gyro.h"
  40:main.c        **** #include "Accel_magnet.h"
  41:main.c        **** #include "IR.h"
  42:main.c        **** #include "Ambient.h"
  43:main.c        **** #include "Beep.h"
  44:main.c        **** 
  45:main.c        **** int rread(void);
  46:main.c        **** 
  47:main.c        **** /**
  48:main.c        ****  * @file    main.c
  49:main.c        ****  * @brief   
  50:main.c        ****  * @details  ** You should enable global interrupt for operating properly. **<br>&nbsp;&nbsp;&nbsp;
  51:main.c        **** */
  52:main.c        **** 
  53:main.c        **** 
  54:main.c        **** //battery level//
  55:main.c        **** int main()
  56:main.c        **** {
  30              		.loc 1 56 0
  31              		.cfi_startproc
  32              		@ args = 0, pretend = 0, frame = 0
  33              		@ frame_needed = 0, uses_anonymous_args = 0
  34 0000 10B5     		push	{r4, lr}
  35              		.cfi_def_cfa_offset 8
  36              		.cfi_offset 4, -8
  37              		.cfi_offset 14, -4
  57:main.c        ****     CyGlobalIntEnable; 
  38              		.loc 1 57 0
  39              	@ 57 "main.c" 1
  40 0002 62B6     		CPSIE   i
  41              	@ 0 "" 2
  58:main.c        ****     UART_1_Start();
  42              		.loc 1 58 0
  43              		.thumb
  44 0004 FFF7FEFF 		bl	UART_1_Start
  45              	.LVL0:
  59:main.c        ****     ADC_Battery_Start();        
  46              		.loc 1 59 0
  47 0008 FFF7FEFF 		bl	ADC_Battery_Start
  48              	.LVL1:
  60:main.c        ****     int16 adcresult =0;
  61:main.c        ****     float volts = 0.0;
  62:main.c        **** 
  63:main.c        ****     printf("\nBoot\n");
  49              		.loc 1 63 0
  50 000c 1648     		ldr	r0, .L5+8
  51 000e FFF7FEFF 		bl	puts
ARM GAS  C:\Users\asentaja\AppData\Local\Temp\cchb7DUf.s 			page 3


  52              	.LVL2:
  64:main.c        **** 
  65:main.c        ****     //BatteryLed_Write(1); // Switch led on 
  66:main.c        ****     BatteryLed_Write(0); // Switch led off 
  53              		.loc 1 66 0
  54 0012 0020     		movs	r0, #0
  55 0014 FFF7FEFF 		bl	BatteryLed_Write
  56              	.LVL3:
  57              	.L3:
  67:main.c        ****     //uint8 button;
  68:main.c        ****     //button = SW1_Read(); // read SW1 on pSoC board
  69:main.c        **** 
  70:main.c        ****     for(;;)
  71:main.c        ****     {
  72:main.c        ****         
  73:main.c        ****         ADC_Battery_StartConvert();
  58              		.loc 1 73 0
  59 0018 FFF7FEFF 		bl	ADC_Battery_StartConvert
  60              	.LVL4:
  74:main.c        ****         if(ADC_Battery_IsEndConversion(ADC_Battery_WAIT_FOR_RESULT)) {   // wait for get ADC conver
  61              		.loc 1 74 0
  62 001c 0020     		movs	r0, #0
  63 001e FFF7FEFF 		bl	ADC_Battery_IsEndConversion
  64              	.LVL5:
  65 0022 A8B1     		cbz	r0, .L2
  75:main.c        ****             adcresult = ADC_Battery_GetResult16();
  66              		.loc 1 75 0
  67 0024 FFF7FEFF 		bl	ADC_Battery_GetResult16
  68              	.LVL6:
  69 0028 0446     		mov	r4, r0
  70              	.LVL7:
  76:main.c        ****             volts = ADC_Battery_CountsTo_Volts(adcresult)/(2.0/3.0);                  // convert va
  71              		.loc 1 76 0
  72 002a FFF7FEFF 		bl	ADC_Battery_CountsTo_Volts
  73              	.LVL8:
  74 002e FFF7FEFF 		bl	__aeabi_f2d
  75              	.LVL9:
  76 0032 0BA3     		adr	r3, .L5
  77 0034 D3E90023 		ldrd	r2, [r3]
  78 0038 FFF7FEFF 		bl	__aeabi_ddiv
  79              	.LVL10:
  80 003c FFF7FEFF 		bl	__aeabi_d2f
  81              	.LVL11:
  77:main.c        ****         
  78:main.c        ****             // If you want to print value
  79:main.c        ****             printf("%d %f\r\n",adcresult, volts);
  82              		.loc 1 79 0
  83 0040 FFF7FEFF 		bl	__aeabi_f2d
  84              	.LVL12:
  85 0044 0246     		mov	r2, r0
  86 0046 0B46     		mov	r3, r1
  87 0048 0848     		ldr	r0, .L5+12
  88 004a 2146     		mov	r1, r4
  89 004c FFF7FEFF 		bl	printf
  90              	.LVL13:
  91              	.L2:
  80:main.c        ****         }
ARM GAS  C:\Users\asentaja\AppData\Local\Temp\cchb7DUf.s 			page 4


  81:main.c        ****         CyDelay(500);
  92              		.loc 1 81 0
  93 0050 4FF4FA70 		mov	r0, #500
  94 0054 FFF7FEFF 		bl	CyDelay
  95              	.LVL14:
  82:main.c        ****         
  83:main.c        ****     }
  96              		.loc 1 83 0
  97 0058 DEE7     		b	.L3
  98              	.L6:
  99 005a 00BFAFF3 		.align	3
  99      0080
 100              	.L5:
 101 0060 55555555 		.word	1431655765
 102 0064 5555E53F 		.word	1071994197
 103 0068 00000000 		.word	.LC0
 104 006c 08000000 		.word	.LC1
 105              		.cfi_endproc
 106              	.LFE63:
 107              		.size	main, .-main
 108              		.section	.text._write,"ax",%progbits
 109              		.align	2
 110              		.global	_write
 111              		.thumb
 112              		.thumb_func
 113              		.type	_write, %function
 114              	_write:
 115              	.LFB64:
  84:main.c        ****  }   
  85:main.c        **** //*/
  86:main.c        **** 
  87:main.c        **** 
  88:main.c        **** /*//ultra sonic sensor//
  89:main.c        **** int main()
  90:main.c        **** {
  91:main.c        ****     CyGlobalIntEnable; 
  92:main.c        ****     UART_1_Start();
  93:main.c        ****     Ultra_Start();                          // Ultra Sonic Start function
  94:main.c        ****     while(1) {
  95:main.c        ****         //If you want to print out the value  
  96:main.c        ****         printf("distance = %5.0f\r\n", Ultra_GetDistance());
  97:main.c        ****         CyDelay(1000);
  98:main.c        ****     }
  99:main.c        **** }   
 100:main.c        **** //*/
 101:main.c        **** 
 102:main.c        **** 
 103:main.c        **** /*//nunchuk//
 104:main.c        **** int main()
 105:main.c        **** {
 106:main.c        ****     CyGlobalIntEnable; 
 107:main.c        ****     UART_1_Start();
 108:main.c        ****   
 109:main.c        ****     nunchuk_start();
 110:main.c        ****     nunchuk_init();
 111:main.c        ****     
 112:main.c        ****     for(;;)
ARM GAS  C:\Users\asentaja\AppData\Local\Temp\cchb7DUf.s 			page 5


 113:main.c        ****     {    
 114:main.c        ****         nunchuk_read();
 115:main.c        ****     }
 116:main.c        **** }   
 117:main.c        **** //*/
 118:main.c        **** 
 119:main.c        **** 
 120:main.c        **** /*//IR receiver//
 121:main.c        **** int main()
 122:main.c        **** {
 123:main.c        ****     CyGlobalIntEnable; 
 124:main.c        ****     UART_1_Start();
 125:main.c        ****     
 126:main.c        ****     unsigned int IR_val; 
 127:main.c        ****     
 128:main.c        ****     for(;;)
 129:main.c        ****     {
 130:main.c        ****        IR_val = get_IR();
 131:main.c        ****        printf("%x\r\n\n",IR_val);
 132:main.c        ****     }    
 133:main.c        ****  }   
 134:main.c        **** //*/
 135:main.c        **** 
 136:main.c        **** 
 137:main.c        **** /*//Ambient light sensor//
 138:main.c        **** int main()
 139:main.c        **** {
 140:main.c        ****     CyGlobalIntEnable; 
 141:main.c        ****     UART_1_Start();
 142:main.c        ****     
 143:main.c        ****     I2C_Start();
 144:main.c        ****     
 145:main.c        ****     I2C_write(0x29,0x80,0x00);          // set to power down
 146:main.c        ****     I2C_write(0x29,0x80,0x03);          // set to power on
 147:main.c        ****     
 148:main.c        ****     for(;;)
 149:main.c        ****     {    
 150:main.c        ****         uint8 Data0Low,Data0High,Data1Low,Data1High;
 151:main.c        ****         Data0Low = I2C_read(0x29,CH0_L);
 152:main.c        ****         Data0High = I2C_read(0x29,CH0_H);
 153:main.c        ****         Data1Low = I2C_read(0x29,CH1_L);
 154:main.c        ****         Data1High = I2C_read(0x29,CH1_H);
 155:main.c        ****         
 156:main.c        ****         uint8 CH0, CH1;
 157:main.c        ****         CH0 = convert_raw(Data0Low,Data0High);      // combine Data0
 158:main.c        ****         CH1 = convert_raw(Data1Low,Data1High);      // combine Data1
 159:main.c        **** 
 160:main.c        ****         double Ch0 = CH0;
 161:main.c        ****         double Ch1 = CH1;
 162:main.c        ****         
 163:main.c        ****         double data = 0;
 164:main.c        ****         data = getLux(Ch0,Ch1);
 165:main.c        ****         
 166:main.c        ****         // If you want to print out data
 167:main.c        ****         //printf("%lf\r\n",data);    
 168:main.c        ****     }    
 169:main.c        ****  }   
ARM GAS  C:\Users\asentaja\AppData\Local\Temp\cchb7DUf.s 			page 6


 170:main.c        **** //*/
 171:main.c        **** 
 172:main.c        **** 
 173:main.c        **** /*//accelerometer//
 174:main.c        **** int main()
 175:main.c        **** {
 176:main.c        ****     CyGlobalIntEnable; 
 177:main.c        ****     UART_1_Start();
 178:main.c        ****   
 179:main.c        ****     I2C_Start();
 180:main.c        ****   
 181:main.c        ****     uint8 X_L_A, X_H_A, Y_L_A, Y_H_A, Z_L_A, Z_H_A;
 182:main.c        ****     int16 X_AXIS_A, Y_AXIS_A, Z_AXIS_A;
 183:main.c        ****     
 184:main.c        ****     I2C_write(ACCEL_MAG_ADDR, ACCEL_CTRL1_REG, 0x37);           // set accelerometer & magnetometer
 185:main.c        ****     I2C_write(ACCEL_MAG_ADDR, ACCEL_CTRL7_REG, 0x22);
 186:main.c        ****     
 187:main.c        ****     
 188:main.c        ****     for(;;)
 189:main.c        ****     {
 190:main.c        ****         //print out accelerometer output
 191:main.c        ****         X_L_A = I2C_read(ACCEL_MAG_ADDR, OUT_X_L_A);
 192:main.c        ****         X_H_A = I2C_read(ACCEL_MAG_ADDR, OUT_X_H_A);
 193:main.c        ****         X_AXIS_A = convert_raw(X_L_A, X_H_A);
 194:main.c        ****         
 195:main.c        ****         Y_L_A = I2C_read(ACCEL_MAG_ADDR, OUT_Y_L_A);
 196:main.c        ****         Y_H_A = I2C_read(ACCEL_MAG_ADDR, OUT_Y_H_A);
 197:main.c        ****         Y_AXIS_A = convert_raw(Y_L_A, Y_H_A);
 198:main.c        ****         
 199:main.c        ****         Z_L_A = I2C_read(ACCEL_MAG_ADDR, OUT_Z_L_A);
 200:main.c        ****         Z_H_A = I2C_read(ACCEL_MAG_ADDR, OUT_Z_H_A);
 201:main.c        ****         Z_AXIS_A = convert_raw(Z_L_A, Z_H_A);
 202:main.c        ****         
 203:main.c        ****         printf("ACCEL: %d %d %d %d %d %d \r\n", X_L_A, X_H_A, Y_L_A, Y_H_A, Z_L_A, Z_H_A);
 204:main.c        ****         value_convert_accel(X_AXIS_A, Y_AXIS_A, Z_AXIS_A);
 205:main.c        ****         printf("\n");
 206:main.c        ****         
 207:main.c        ****         CyDelay(50);
 208:main.c        ****     }
 209:main.c        **** }   
 210:main.c        **** //*/
 211:main.c        **** 
 212:main.c        **** 
 213:main.c        **** /*//reflectance//
 214:main.c        **** int main()
 215:main.c        **** {
 216:main.c        ****     struct sensors_ ref;
 217:main.c        ****     struct sensors_ dig;
 218:main.c        ****     CyGlobalIntEnable; 
 219:main.c        ****     UART_1_Start();
 220:main.c        ****   
 221:main.c        ****     sensor_isr_StartEx(sensor_isr_handler);
 222:main.c        ****     
 223:main.c        ****     reflectance_start();
 224:main.c        **** 
 225:main.c        ****     IR_led_Write(1);
 226:main.c        ****     for(;;)
ARM GAS  C:\Users\asentaja\AppData\Local\Temp\cchb7DUf.s 			page 7


 227:main.c        ****     {
 228:main.c        ****         reflectance_read(&ref);
 229:main.c        ****         printf("%d %d %d %d \r\n", ref.l3, ref.l1, ref.r1, ref.r3);       //print out each period o
 230:main.c        ****         reflectance_digital(&dig);      //print out 0 or 1 according to results of reflectance peri
 231:main.c        ****         printf("%d %d %d %d \r\n", dig.l3, dig.l1, dig.r1, dig.r3);        //print out 0 or 1 accor
 232:main.c        ****         
 233:main.c        ****         CyDelay(500);
 234:main.c        ****     }
 235:main.c        **** }   
 236:main.c        **** //*/
 237:main.c        **** 
 238:main.c        ****  /* //motor//
 239:main.c        **** int main()
 240:main.c        **** {
 241:main.c        ****     CyGlobalIntEnable; 
 242:main.c        ****     UART_1_Start();
 243:main.c        **** 
 244:main.c        ****     motor_start();              // motor start
 245:main.c        **** 
 246:main.c        ****     motor_forward(100,2000);     // moving forward
 247:main.c        ****     motor_turn(200,50,2000);     // turn
 248:main.c        ****     motor_turn(50,200,2000);     // turn
 249:main.c        ****     motor_backward(100,2000);    // movinb backward
 250:main.c        ****        
 251:main.c        ****     motor_stop();               // motor stop
 252:main.c        ****     
 253:main.c        ****     for(;;)
 254:main.c        ****     {
 255:main.c        **** 
 256:main.c        ****     }
 257:main.c        **** }
 258:main.c        **** //*/
 259:main.c        ****     
 260:main.c        **** 
 261:main.c        **** /*//gyroscope//
 262:main.c        **** int main()
 263:main.c        **** {
 264:main.c        ****     CyGlobalIntEnable; 
 265:main.c        ****     UART_1_Start();
 266:main.c        ****   
 267:main.c        ****     I2C_Start();
 268:main.c        ****   
 269:main.c        ****     uint8 X_L_G, X_H_G, Y_L_G, Y_H_G, Z_L_G, Z_H_G;
 270:main.c        ****     int16 X_AXIS_G, Y_AXIS_G, Z_AXIS_G;
 271:main.c        ****     
 272:main.c        ****     I2C_write(GYRO_ADDR, GYRO_CTRL1_REG, 0x0F);             // set gyroscope into active mode
 273:main.c        ****     I2C_write(GYRO_ADDR, GYRO_CTRL4_REG, 0x30);             // set full scale selection to 2000dps 
 274:main.c        ****     
 275:main.c        ****     for(;;)
 276:main.c        ****     {
 277:main.c        ****         //print out gyroscope output
 278:main.c        ****         X_L_G = I2C_read(GYRO_ADDR, OUT_X_AXIS_L);
 279:main.c        ****         X_H_G = I2C_read(GYRO_ADDR, OUT_X_AXIS_H);
 280:main.c        ****         X_AXIS_G = convert_raw(X_H_G, X_L_G);
 281:main.c        ****         
 282:main.c        ****         
 283:main.c        ****         Y_L_G = I2C_read(GYRO_ADDR, OUT_Y_AXIS_L);
ARM GAS  C:\Users\asentaja\AppData\Local\Temp\cchb7DUf.s 			page 8


 284:main.c        ****         Y_H_G = I2C_read(GYRO_ADDR, OUT_Y_AXIS_H);
 285:main.c        ****         Y_AXIS_G = convert_raw(Y_H_G, Y_L_G);
 286:main.c        ****         
 287:main.c        ****         
 288:main.c        ****         Z_L_G = I2C_read(GYRO_ADDR, OUT_Z_AXIS_L);
 289:main.c        ****         Z_H_G = I2C_read(GYRO_ADDR, OUT_Z_AXIS_H);
 290:main.c        ****         Z_AXIS_G = convert_raw(Z_H_G, Z_L_G);
 291:main.c        ****      
 292:main.c        ****         // If you want to print value
 293:main.c        ****         printf("%d %d %d \r\n", X_AXIS_G, Y_AXIS_G, Z_AXIS_G);
 294:main.c        ****         CyDelay(50);
 295:main.c        ****     }
 296:main.c        **** }   
 297:main.c        **** //*/
 298:main.c        **** 
 299:main.c        **** 
 300:main.c        **** /*//magnetometer//
 301:main.c        **** int main()
 302:main.c        **** {
 303:main.c        ****     CyGlobalIntEnable; 
 304:main.c        ****     UART_1_Start();
 305:main.c        ****   
 306:main.c        ****     I2C_Start();
 307:main.c        ****    
 308:main.c        ****     uint8 X_L_M, X_H_M, Y_L_M, Y_H_M, Z_L_M, Z_H_M;
 309:main.c        ****     int16 X_AXIS, Y_AXIS, Z_AXIS;
 310:main.c        ****     
 311:main.c        ****     I2C_write(GYRO_ADDR, GYRO_CTRL1_REG, 0x0F);             // set gyroscope into active mode
 312:main.c        ****     I2C_write(GYRO_ADDR, GYRO_CTRL4_REG, 0x30);             // set full scale selection to 2000dps
 313:main.c        ****     I2C_write(ACCEL_MAG_ADDR, ACCEL_CTRL1_REG, 0x37);           // set accelerometer & magnetometer
 314:main.c        ****     I2C_write(ACCEL_MAG_ADDR, ACCEL_CTRL7_REG, 0x22);
 315:main.c        ****     
 316:main.c        ****     
 317:main.c        ****     for(;;)
 318:main.c        ****     {
 319:main.c        ****         X_L_M = I2C_read(ACCEL_MAG_ADDR, OUT_X_L_M);
 320:main.c        ****         X_H_M = I2C_read(ACCEL_MAG_ADDR, OUT_X_H_M);
 321:main.c        ****         X_AXIS = convert_raw(X_L_M, X_H_M);
 322:main.c        ****         
 323:main.c        ****         Y_L_M = I2C_read(ACCEL_MAG_ADDR, OUT_Y_L_M);
 324:main.c        ****         Y_H_M = I2C_read(ACCEL_MAG_ADDR, OUT_Y_H_M);
 325:main.c        ****         Y_AXIS = convert_raw(Y_L_M, Y_H_M);
 326:main.c        ****         
 327:main.c        ****         Z_L_M = I2C_read(ACCEL_MAG_ADDR, OUT_Z_L_M);
 328:main.c        ****         Z_H_M = I2C_read(ACCEL_MAG_ADDR, OUT_Z_H_M);
 329:main.c        ****         Z_AXIS = convert_raw(Z_L_M, Z_H_M);
 330:main.c        ****         
 331:main.c        ****         heading(X_AXIS, Y_AXIS);
 332:main.c        ****         printf("MAGNET: %d %d %d %d %d %d \r\n", X_L_M, X_H_M, Y_L_M, Y_H_M, Z_L_M, Z_H_M);
 333:main.c        ****         printf("%d %d %d \r\n", X_AXIS,Y_AXIS, Z_AXIS);
 334:main.c        ****         CyDelay(50);      
 335:main.c        ****     }
 336:main.c        **** }   
 337:main.c        **** //*/
 338:main.c        **** 
 339:main.c        **** 
 340:main.c        **** #if 0
ARM GAS  C:\Users\asentaja\AppData\Local\Temp\cchb7DUf.s 			page 9


 341:main.c        **** int rread(void)
 342:main.c        **** {
 343:main.c        ****     SC0_SetDriveMode(PIN_DM_STRONG);
 344:main.c        ****     SC0_Write(1);
 345:main.c        ****     CyDelayUs(10);
 346:main.c        ****     SC0_SetDriveMode(PIN_DM_DIG_HIZ);
 347:main.c        ****     Timer_1_Start();
 348:main.c        ****     uint16_t start = Timer_1_ReadCounter();
 349:main.c        ****     uint16_t end = 0;
 350:main.c        ****     while(!(Timer_1_ReadStatusRegister() & Timer_1_STATUS_TC)) {
 351:main.c        ****         if(SC0_Read() == 0 && end == 0) {
 352:main.c        ****             end = Timer_1_ReadCounter();
 353:main.c        ****         }
 354:main.c        ****     }
 355:main.c        ****     Timer_1_Stop();
 356:main.c        ****     
 357:main.c        ****     return (start - end);
 358:main.c        **** }
 359:main.c        **** #endif
 360:main.c        **** 
 361:main.c        **** /* Don't remove the functions below */
 362:main.c        **** int _write(int file, char *ptr, int len)
 363:main.c        **** {
 116              		.loc 1 363 0
 117              		.cfi_startproc
 118              		@ args = 0, pretend = 0, frame = 0
 119              		@ frame_needed = 0, uses_anonymous_args = 0
 120              	.LVL15:
 121 0000 F8B5     		push	{r3, r4, r5, r6, r7, lr}
 122              		.cfi_def_cfa_offset 24
 123              		.cfi_offset 3, -24
 124              		.cfi_offset 4, -20
 125              		.cfi_offset 5, -16
 126              		.cfi_offset 6, -12
 127              		.cfi_offset 7, -8
 128              		.cfi_offset 14, -4
 129 0002 0C46     		mov	r4, r1
 130 0004 1746     		mov	r7, r2
 131              	.LVL16:
 364:main.c        ****     (void)file; /* Parameter is not used, suppress unused argument warning */
 365:main.c        **** 	int n;
 366:main.c        **** 	for(n = 0; n < len; n++) {
 132              		.loc 1 366 0
 133 0006 0025     		movs	r5, #0
 134 0008 0BE0     		b	.L8
 135              	.LVL17:
 136              	.L10:
 367:main.c        ****         if(*ptr == '\n') UART_1_PutChar('\r');
 137              		.loc 1 367 0
 138 000a 2378     		ldrb	r3, [r4]	@ zero_extendqisi2
 139 000c 0A2B     		cmp	r3, #10
 140 000e 02D1     		bne	.L9
 141              		.loc 1 367 0 is_stmt 0 discriminator 1
 142 0010 0D20     		movs	r0, #13
 143 0012 FFF7FEFF 		bl	UART_1_PutChar
 144              	.LVL18:
 145              	.L9:
ARM GAS  C:\Users\asentaja\AppData\Local\Temp\cchb7DUf.s 			page 10


 368:main.c        **** 		UART_1_PutChar(*ptr++);
 146              		.loc 1 368 0 is_stmt 1 discriminator 2
 147 0016 661C     		adds	r6, r4, #1
 148              	.LVL19:
 149 0018 2078     		ldrb	r0, [r4]	@ zero_extendqisi2
 150 001a FFF7FEFF 		bl	UART_1_PutChar
 151              	.LVL20:
 366:main.c        ****         if(*ptr == '\n') UART_1_PutChar('\r');
 152              		.loc 1 366 0 discriminator 2
 153 001e 0135     		adds	r5, r5, #1
 154              	.LVL21:
 155              		.loc 1 368 0 discriminator 2
 156 0020 3446     		mov	r4, r6
 157              	.LVL22:
 158              	.L8:
 366:main.c        ****         if(*ptr == '\n') UART_1_PutChar('\r');
 159              		.loc 1 366 0 discriminator 1
 160 0022 BD42     		cmp	r5, r7
 161 0024 F1DB     		blt	.L10
 369:main.c        **** 	}
 370:main.c        **** 	return len;
 371:main.c        **** }
 162              		.loc 1 371 0
 163 0026 3846     		mov	r0, r7
 164 0028 F8BD     		pop	{r3, r4, r5, r6, r7, pc}
 165              		.cfi_endproc
 166              	.LFE64:
 167              		.size	_write, .-_write
 168 002a 00BF     		.section	.text._read,"ax",%progbits
 169              		.align	2
 170              		.global	_read
 171              		.thumb
 172              		.thumb_func
 173              		.type	_read, %function
 174              	_read:
 175              	.LFB65:
 372:main.c        **** 
 373:main.c        **** int _read (int file, char *ptr, int count)
 374:main.c        **** {
 176              		.loc 1 374 0
 177              		.cfi_startproc
 178              		@ args = 0, pretend = 0, frame = 0
 179              		@ frame_needed = 0, uses_anonymous_args = 0
 180              	.LVL23:
 181 0000 F8B5     		push	{r3, r4, r5, r6, r7, lr}
 182              		.cfi_def_cfa_offset 24
 183              		.cfi_offset 3, -24
 184              		.cfi_offset 4, -20
 185              		.cfi_offset 5, -16
 186              		.cfi_offset 6, -12
 187              		.cfi_offset 7, -8
 188              		.cfi_offset 14, -4
 189 0002 0F46     		mov	r7, r1
 190 0004 1446     		mov	r4, r2
 191              	.LVL24:
 375:main.c        ****     int chs = 0;
 192              		.loc 1 375 0
ARM GAS  C:\Users\asentaja\AppData\Local\Temp\cchb7DUf.s 			page 11


 193 0006 0026     		movs	r6, #0
 376:main.c        ****     char ch;
 377:main.c        ****  
 378:main.c        ****     (void)file; /* Parameter is not used, suppress unused argument warning */
 379:main.c        ****     while(count > 0) {
 194              		.loc 1 379 0
 195 0008 12E0     		b	.L14
 196              	.LVL25:
 197              	.L17:
 380:main.c        ****         ch = UART_1_GetChar();
 198              		.loc 1 380 0
 199 000a FFF7FEFF 		bl	UART_1_GetChar
 200              	.LVL26:
 381:main.c        ****         if(ch != 0) {
 201              		.loc 1 381 0
 202 000e 0546     		mov	r5, r0
 203 0010 70B1     		cbz	r0, .L14
 382:main.c        ****             UART_1_PutChar(ch);
 204              		.loc 1 382 0
 205 0012 FFF7FEFF 		bl	UART_1_PutChar
 206              	.LVL27:
 383:main.c        ****             chs++;
 207              		.loc 1 383 0
 208 0016 0136     		adds	r6, r6, #1
 209              	.LVL28:
 384:main.c        ****             if(ch == '\r') {
 210              		.loc 1 384 0
 211 0018 0D2D     		cmp	r5, #13
 212 001a 03D1     		bne	.L15
 213              	.LVL29:
 385:main.c        ****                 ch = '\n';
 386:main.c        ****                 UART_1_PutChar(ch);
 214              		.loc 1 386 0
 215 001c 0A20     		movs	r0, #10
 216 001e FFF7FEFF 		bl	UART_1_PutChar
 217              	.LVL30:
 385:main.c        ****                 ch = '\n';
 218              		.loc 1 385 0
 219 0022 0A25     		movs	r5, #10
 220              	.LVL31:
 221              	.L15:
 387:main.c        ****             }
 388:main.c        ****             *ptr++ = ch;
 222              		.loc 1 388 0
 223 0024 7B1C     		adds	r3, r7, #1
 224              	.LVL32:
 225 0026 3D70     		strb	r5, [r7]
 389:main.c        ****             count--;
 226              		.loc 1 389 0
 227 0028 013C     		subs	r4, r4, #1
 228              	.LVL33:
 390:main.c        ****             if(ch == '\n') break;
 229              		.loc 1 390 0
 230 002a 0A2D     		cmp	r5, #10
 231 002c 02D0     		beq	.L16
 388:main.c        ****             count--;
 232              		.loc 1 388 0
ARM GAS  C:\Users\asentaja\AppData\Local\Temp\cchb7DUf.s 			page 12


 233 002e 1F46     		mov	r7, r3
 234              	.LVL34:
 235              	.L14:
 379:main.c        ****         ch = UART_1_GetChar();
 236              		.loc 1 379 0
 237 0030 002C     		cmp	r4, #0
 238 0032 EADC     		bgt	.L17
 239              	.LVL35:
 240              	.L16:
 391:main.c        ****         }
 392:main.c        ****     }
 393:main.c        ****     return chs;
 394:main.c        **** }
 241              		.loc 1 394 0
 242 0034 3046     		mov	r0, r6
 243 0036 F8BD     		pop	{r3, r4, r5, r6, r7, pc}
 244              		.cfi_endproc
 245              	.LFE65:
 246              		.size	_read, .-_read
 247              		.section	.rodata.str1.4,"aMS",%progbits,1
 248              		.align	2
 249              	.LC0:
 250 0000 0A426F6F 		.ascii	"\012Boot\000"
 250      7400
 251 0006 0000     		.space	2
 252              	.LC1:
 253 0008 25642025 		.ascii	"%d %f\015\012\000"
 253      660D0A00 
 254              		.text
 255              	.Letext0:
 256              		.file 2 "c:\\program files (x86)\\cypress\\psoc creator\\4.0\\psoc creator\\import\\gnu\\arm\\4.9.
 257              		.file 3 "c:\\program files (x86)\\cypress\\psoc creator\\4.0\\psoc creator\\import\\gnu\\arm\\4.9.
 258              		.file 4 "Generated_Source\\PSoC5/cytypes.h"
 259              		.file 5 "Generated_Source\\PSoC5/UART_1.h"
 260              		.file 6 "Generated_Source\\PSoC5/ADC_Battery.h"
 261              		.file 7 "c:\\program files (x86)\\cypress\\psoc creator\\4.0\\psoc creator\\import\\gnu\\arm\\4.9.
 262              		.file 8 "Generated_Source\\PSoC5/BatteryLed.h"
 263              		.file 9 "Generated_Source\\PSoC5/CyLib.h"
 264              		.file 10 "Generated_Source\\PSoC5/core_cm3.h"
 265              		.file 11 "<built-in>"